; Function Attrs: mustprogress nofree norecurse nosync nounwind willreturn memory(readwrite, argmem: none, inaccessiblemem: none) uwtable
define hidden void @mi_option_set_enabled_default(i32 noundef %0, i1 noundef zeroext %1) local_unnamed_addr #5 {
  %3 = zext i1 %1 to i64
  %4 = icmp ugt i32 %0, 35
  br i1 %4, label %mi_option_set_default.exit, label %5

5:                                                ; preds = %2
  %6 = zext nneg i32 %0 to i64
  %7 = getelementptr inbounds nuw [36 x %struct.mi_option_desc_s], ptr @options, i64 0, i64 %6
  %8 = getelementptr inbounds nuw i8, ptr %7, i64 8
  %9 = load i32, ptr %8, align 8, !tbaa !8
  %.not.i = icmp eq i32 %9, 2
  br i1 %.not.i, label %mi_option_set_default.exit, label %10

10:                                               ; preds = %5
  store i64 %3, ptr %7, align 16, !tbaa !14
  br label %mi_option_set_default.exit

mi_option_set_default.exit:                       ; preds = %2, %5, %10
  ret void
}